target datalayout = "e-m:e-p270:32:32-p271:32:32-p272:64:64-i64:64-i128:128-f80:128-n8:16:32:64-S128"
target triple = "x86_64-pc-linux-gnu"

%struct.pme_load_balancing_t = type { i8, i8, i64, i8, i8, i32, i8, float, float, float, float, float, float, float, [3 x [3 x float]], %"class.std::vector", i32, i32, i32, i32, i32, i32, i32, i32, i32, double, double }
%"class.std::vector" = type { %"struct.std::_Vector_base" }
%"struct.std::_Vector_base" = type { %"struct.std::_Vector_base<pme_setup_t, std::allocator<pme_setup_t>>::_Vector_impl" }
%"struct.std::_Vector_base<pme_setup_t, std::allocator<pme_setup_t>>::_Vector_impl" = type { %"struct.std::_Vector_base<pme_setup_t, std::allocator<pme_setup_t>>::_Vector_impl_data" }
%"struct.std::_Vector_base<pme_setup_t, std::allocator<pme_setup_t>>::_Vector_impl_data" = type { ptr, ptr, ptr }
%struct.pme_setup_t = type { float, float, float, float, [3 x i32], float, float, float, ptr, i32, double }

; Function Attrs: mustprogress nounwind uwtable
define linkonce_odr noundef i64 @_ZNKSt6vectorI11pme_setup_tSaIS0_EE4sizeEv(ptr noundef nonnull align 8 dereferenceable(24) %0) #0 comdat align 2 {
  %2 = alloca ptr, align 8
  store ptr %0, ptr %2, align 8
  %3 = load ptr, ptr %2, align 8
  %4 = getelementptr inbounds %"struct.std::_Vector_base", ptr %3, i32 0, i32 0
  %5 = getelementptr inbounds %"struct.std::_Vector_base<pme_setup_t, std::allocator<pme_setup_t>>::_Vector_impl_data", ptr %4, i32 0, i32 1
  %6 = load ptr, ptr %5, align 8
  %7 = getelementptr inbounds %"struct.std::_Vector_base", ptr %3, i32 0, i32 0
  %8 = getelementptr inbounds %"struct.std::_Vector_base<pme_setup_t, std::allocator<pme_setup_t>>::_Vector_impl_data", ptr %7, i32 0, i32 0
  %9 = load ptr, ptr %8, align 8
  %10 = ptrtoint ptr %6 to i64
  %11 = ptrtoint ptr %9 to i64
  %12 = sub i64 %10, %11
  %13 = sdiv exact i64 %12, 64
  ret i64 %13
}

; Function Attrs: mustprogress nounwind uwtable
define linkonce_odr noundef nonnull align 8 dereferenceable(64) ptr @_ZNSt6vectorI11pme_setup_tSaIS0_EEixEm(ptr noundef nonnull align 8 dereferenceable(24) %0, i64 noundef %1) #0 comdat align 2 {
  %3 = alloca ptr, align 8
  %4 = alloca i64, align 8
  store ptr %0, ptr %3, align 8
  store i64 %1, ptr %4, align 8
  %5 = load ptr, ptr %3, align 8
  %6 = getelementptr inbounds %"struct.std::_Vector_base", ptr %5, i32 0, i32 0
  %7 = getelementptr inbounds %"struct.std::_Vector_base<pme_setup_t, std::allocator<pme_setup_t>>::_Vector_impl_data", ptr %6, i32 0, i32 0
  %8 = load ptr, ptr %7, align 8
  %9 = load i64, ptr %4, align 8
  %10 = getelementptr inbounds %struct.pme_setup_t, ptr %8, i64 %9
  ret ptr %10
}

; Function Attrs: mustprogress nounwind uwtable
define linkonce_odr noundef i64 @_ZN3gmx5ssizeISt6vectorI11pme_setup_tSaIS2_EEEElRKT_(ptr noundef nonnull align 8 dereferenceable(24) %0) #0 comdat {
  %2 = alloca ptr, align 8
  store ptr %0, ptr %2, align 8
  %3 = load ptr, ptr %2, align 8
  %4 = call noundef i64 @_ZNKSt6vectorI11pme_setup_tSaIS0_EE4sizeEv(ptr noundef nonnull align 8 dereferenceable(24) %3) #12
  ret i64 %4
}

; Function Attrs: mustprogress uwtable
define internal void @_ZL16switch_to_stage1P20pme_load_balancing_t(ptr noundef %0) #1 {
  %2 = alloca ptr, align 8
  store ptr %0, ptr %2, align 8
  %3 = load ptr, ptr %2, align 8
  %4 = getelementptr inbounds %struct.pme_load_balancing_t, ptr %3, i32 0, i32 18
  %5 = load i32, ptr %4, align 8
  %6 = load ptr, ptr %2, align 8
  %7 = getelementptr inbounds %struct.pme_load_balancing_t, ptr %6, i32 0, i32 19
  store i32 %5, ptr %7, align 4
  br label %8

8:                                                ; preds = %54, %1
  %9 = load ptr, ptr %2, align 8
  %10 = getelementptr inbounds %struct.pme_load_balancing_t, ptr %9, i32 0, i32 19
  %11 = load i32, ptr %10, align 4
  %12 = add nsw i32 %11, 1
  %13 = sext i32 %12 to i64
  %14 = load ptr, ptr %2, align 8
  %15 = getelementptr inbounds %struct.pme_load_balancing_t, ptr %14, i32 0, i32 15
  %16 = call noundef i64 @_ZN3gmx5ssizeISt6vectorI11pme_setup_tSaIS2_EEEElRKT_(ptr noundef nonnull align 8 dereferenceable(24) %15)
  %17 = icmp slt i64 %13, %16
  br i1 %17, label %18, label %52

18:                                               ; preds = %8
  %19 = load ptr, ptr %2, align 8
  %20 = getelementptr inbounds %struct.pme_load_balancing_t, ptr %19, i32 0, i32 15
  %21 = load ptr, ptr %2, align 8
  %22 = getelementptr inbounds %struct.pme_load_balancing_t, ptr %21, i32 0, i32 19
  %23 = load i32, ptr %22, align 4
  %24 = sext i32 %23 to i64
  %25 = call noundef nonnull align 8 dereferenceable(64) ptr @_ZNSt6vectorI11pme_setup_tSaIS0_EEixEm(ptr noundef nonnull align 8 dereferenceable(24) %20, i64 noundef %24) #12
  %26 = getelementptr inbounds %struct.pme_setup_t, ptr %25, i32 0, i32 9
  %27 = load i32, ptr %26, align 8
  %28 = icmp eq i32 %27, 0
  br i1 %28, label %50, label %29

29:                                               ; preds = %18
  %30 = load ptr, ptr %2, align 8
  %31 = getelementptr inbounds %struct.pme_load_balancing_t, ptr %30, i32 0, i32 15
  %32 = load ptr, ptr %2, align 8
  %33 = getelementptr inbounds %struct.pme_load_balancing_t, ptr %32, i32 0, i32 19
  %34 = load i32, ptr %33, align 4
  %35 = sext i32 %34 to i64
  %36 = call noundef nonnull align 8 dereferenceable(64) ptr @_ZNSt6vectorI11pme_setup_tSaIS0_EEixEm(ptr noundef nonnull align 8 dereferenceable(24) %31, i64 noundef %35) #12
  %37 = getelementptr inbounds %struct.pme_setup_t, ptr %36, i32 0, i32 10
  %38 = load double, ptr %37, align 8
  %39 = load ptr, ptr %2, align 8
  %40 = getelementptr inbounds %struct.pme_load_balancing_t, ptr %39, i32 0, i32 15
  %41 = load ptr, ptr %2, align 8
  %42 = getelementptr inbounds %struct.pme_load_balancing_t, ptr %41, i32 0, i32 17
  %43 = load i32, ptr %42, align 4
  %44 = sext i32 %43 to i64
  %45 = call noundef nonnull align 8 dereferenceable(64) ptr @_ZNSt6vectorI11pme_setup_tSaIS0_EEixEm(ptr noundef nonnull align 8 dereferenceable(24) %40, i64 noundef %44) #12
  %46 = getelementptr inbounds %struct.pme_setup_t, ptr %45, i32 0, i32 10
  %47 = load double, ptr %46, align 8
  %48 = fmul double %47, 0x3FF1EB8520000000
  %49 = fcmp ogt double %38, %48
  br label %50

50:                                               ; preds = %29, %18
  %51 = phi i1 [ true, %18 ], [ %49, %29 ]
  br label %52

52:                                               ; preds = %50, %8
  %53 = phi i1 [ false, %8 ], [ %51, %50 ]
  br i1 %53, label %54, label %59

54:                                               ; preds = %52
  %55 = load ptr, ptr %2, align 8
  %56 = getelementptr inbounds %struct.pme_load_balancing_t, ptr %55, i32 0, i32 19
  %57 = load i32, ptr %56, align 4
  %58 = add nsw i32 %57, 1
  store i32 %58, ptr %56, align 4
  br label %8, !llvm.loop !9

59:                                               ; preds = %52
  br label %60

60:                                               ; preds = %82, %59
  %61 = load ptr, ptr %2, align 8
  %62 = getelementptr inbounds %struct.pme_load_balancing_t, ptr %61, i32 0, i32 19
  %63 = load i32, ptr %62, align 4
  %64 = load ptr, ptr %2, align 8
  %65 = getelementptr inbounds %struct.pme_load_balancing_t, ptr %64, i32 0, i32 18
  %66 = load i32, ptr %65, align 8
  %67 = icmp sgt i32 %63, %66
  br i1 %67, label %68, label %80

68:                                               ; preds = %60
  %69 = load ptr, ptr %2, align 8
  %70 = getelementptr inbounds %struct.pme_load_balancing_t, ptr %69, i32 0, i32 15
  %71 = load ptr, ptr %2, align 8
  %72 = getelementptr inbounds %struct.pme_load_balancing_t, ptr %71, i32 0, i32 19
  %73 = load i32, ptr %72, align 4
  %74 = sub nsw i32 %73, 1
  %75 = sext i32 %74 to i64
  %76 = call noundef nonnull align 8 dereferenceable(64) ptr @_ZNSt6vectorI11pme_setup_tSaIS0_EEixEm(ptr noundef nonnull align 8 dereferenceable(24) %70, i64 noundef %75) #12
  %77 = getelementptr inbounds %struct.pme_setup_t, ptr %76, i32 0, i32 9
  %78 = load i32, ptr %77, align 8
  %79 = icmp eq i32 %78, 0
  br label %80

80:                                               ; preds = %68, %60
  %81 = phi i1 [ false, %60 ], [ %79, %68 ]
  br i1 %81, label %82, label %87

82:                                               ; preds = %80
  %83 = load ptr, ptr %2, align 8
  %84 = getelementptr inbounds %struct.pme_load_balancing_t, ptr %83, i32 0, i32 19
  %85 = load i32, ptr %84, align 4
  %86 = add nsw i32 %85, -1
  store i32 %86, ptr %84, align 4
  br label %60, !llvm.loop !10

87:                                               ; preds = %80
  %88 = load ptr, ptr %2, align 8
  %89 = getelementptr inbounds %struct.pme_load_balancing_t, ptr %88, i32 0, i32 15
  %90 = call noundef i64 @_ZNKSt6vectorI11pme_setup_tSaIS0_EE4sizeEv(ptr noundef nonnull align 8 dereferenceable(24) %89) #12
  %91 = trunc i64 %90 to i32
  %92 = load ptr, ptr %2, align 8
  %93 = getelementptr inbounds %struct.pme_load_balancing_t, ptr %92, i32 0, i32 20
  store i32 %91, ptr %93, align 8
  %94 = load ptr, ptr %2, align 8
  %95 = getelementptr inbounds %struct.pme_load_balancing_t, ptr %94, i32 0, i32 15
  %96 = load ptr, ptr %2, align 8
  %97 = getelementptr inbounds %struct.pme_load_balancing_t, ptr %96, i32 0, i32 20
  %98 = load i32, ptr %97, align 8
  %99 = sub nsw i32 %98, 1
  %100 = sext i32 %99 to i64
  %101 = call noundef nonnull align 8 dereferenceable(64) ptr @_ZNSt6vectorI11pme_setup_tSaIS0_EEixEm(ptr noundef nonnull align 8 dereferenceable(24) %95, i64 noundef %100) #12
  %102 = getelementptr inbounds %struct.pme_setup_t, ptr %101, i32 0, i32 9
  %103 = load i32, ptr %102, align 8
  %104 = icmp sgt i32 %103, 0
  br i1 %104, label %105, label %132

105:                                              ; preds = %87
  %106 = load ptr, ptr %2, align 8
  %107 = getelementptr inbounds %struct.pme_load_balancing_t, ptr %106, i32 0, i32 15
  %108 = load ptr, ptr %2, align 8
  %109 = getelementptr inbounds %struct.pme_load_balancing_t, ptr %108, i32 0, i32 20
  %110 = load i32, ptr %109, align 8
  %111 = sub nsw i32 %110, 1
  %112 = sext i32 %111 to i64
  %113 = call noundef nonnull align 8 dereferenceable(64) ptr @_ZNSt6vectorI11pme_setup_tSaIS0_EEixEm(ptr noundef nonnull align 8 dereferenceable(24) %107, i64 noundef %112) #12
  %114 = getelementptr inbounds %struct.pme_setup_t, ptr %113, i32 0, i32 10
  %115 = load double, ptr %114, align 8
  %116 = load ptr, ptr %2, align 8
  %117 = getelementptr inbounds %struct.pme_load_balancing_t, ptr %116, i32 0, i32 15
  %118 = load ptr, ptr %2, align 8
  %119 = getelementptr inbounds %struct.pme_load_balancing_t, ptr %118, i32 0, i32 17
  %120 = load i32, ptr %119, align 4
  %121 = sext i32 %120 to i64
  %122 = call noundef nonnull align 8 dereferenceable(64) ptr @_ZNSt6vectorI11pme_setup_tSaIS0_EEixEm(ptr noundef nonnull align 8 dereferenceable(24) %117, i64 noundef %121) #12
  %123 = getelementptr inbounds %struct.pme_setup_t, ptr %122, i32 0, i32 10
  %124 = load double, ptr %123, align 8
  %125 = fmul double %124, 0x3FF1EB8520000000
  %126 = fcmp ogt double %115, %125
  br i1 %126, label %127, label %132

127:                                              ; preds = %105
  %128 = load ptr, ptr %2, align 8
  %129 = getelementptr inbounds %struct.pme_load_balancing_t, ptr %128, i32 0, i32 20
  %130 = load i32, ptr %129, align 8
  %131 = add nsw i32 %130, -1
  store i32 %131, ptr %129, align 8
  br label %132

132:                                              ; preds = %127, %105, %87
  %133 = load ptr, ptr %2, align 8
  %134 = getelementptr inbounds %struct.pme_load_balancing_t, ptr %133, i32 0, i32 23
  store i32 1, ptr %134, align 4
  %135 = load ptr, ptr %2, align 8
  %136 = getelementptr inbounds %struct.pme_load_balancing_t, ptr %135, i32 0, i32 20
  %137 = load i32, ptr %136, align 8
  %138 = load ptr, ptr %2, align 8
  %139 = getelementptr inbounds %struct.pme_load_balancing_t, ptr %138, i32 0, i32 16
  store i32 %137, ptr %139, align 8
  ret void
}