; Function Attrs: mustprogress nofree norecurse nosync nounwind memory(read, argmem: readwrite, inaccessiblemem: none) uwtable
define internal fastcc void @_ZL16switch_to_stage1P20pme_load_balancing_t(ptr nocapture noundef %0) unnamed_addr #13 {
  %2 = getelementptr inbounds i8, ptr %0, i64 128
  %3 = load i32, ptr %2, align 8
  %4 = getelementptr inbounds i8, ptr %0, i64 132
  %5 = getelementptr inbounds i8, ptr %0, i64 96
  %6 = getelementptr inbounds i8, ptr %0, i64 104
  %7 = load ptr, ptr %6, align 8
  %8 = load ptr, ptr %5, align 8
  %9 = ptrtoint ptr %7 to i64
  %10 = ptrtoint ptr %8 to i64
  %11 = sub i64 %9, %10
  %12 = ashr exact i64 %11, 6
  store i32 %3, ptr %4, align 4
  %13 = add nsw i32 %3, 1
  %14 = sext i32 %13 to i64
  %15 = icmp sgt i64 %12, %14
  br i1 %15, label %.lr.ph, label %.critedge4

.lr.ph:                                           ; preds = %1
  %16 = getelementptr inbounds i8, ptr %0, i64 124
  %17 = sext i32 %3 to i64
  %18 = add nsw i64 %17, 1
  br label %19

19:                                               ; preds = %.lr.ph, %.critedge2
  %.promoted51 = phi i32 [ %3, %.lr.ph ], [ %33, %.critedge2 ]
  %indvars.iv41 = phi i64 [ %17, %.lr.ph ], [ %indvars.iv.next42, %.critedge2 ]
  %indvars.iv = phi i64 [ %18, %.lr.ph ], [ %indvars.iv.next, %.critedge2 ]
  %20 = getelementptr inbounds %struct.pme_setup_t, ptr %8, i64 %indvars.iv41
  %21 = getelementptr inbounds i8, ptr %20, i64 48
  %22 = load i32, ptr %21, align 8
  %23 = icmp eq i32 %22, 0
  br i1 %23, label %.critedge2, label %24

24:                                               ; preds = %19
  %25 = getelementptr inbounds i8, ptr %20, i64 56
  %26 = load double, ptr %25, align 8
  %27 = load i32, ptr %16, align 4
  %28 = sext i32 %27 to i64
  %29 = getelementptr inbounds %struct.pme_setup_t, ptr %8, i64 %28, i32 10
  %30 = load double, ptr %29, align 8
  %31 = fmul double %30, 0x3FF1EB8520000000
  %32 = fcmp ogt double %26, %31
  br i1 %32, label %.critedge2, label %.critedge

.critedge2:                                       ; preds = %19, %24
  %33 = trunc nsw i64 %indvars.iv to i32
  store i32 %33, ptr %4, align 4
  %indvars.iv.next = add nsw i64 %indvars.iv, 1
  %34 = icmp sgt i64 %12, %indvars.iv.next
  %indvars.iv.next42 = add nsw i64 %indvars.iv41, 1
  br i1 %34, label %19, label %.critedge, !llvm.loop !11

.critedge:                                        ; preds = %24, %.critedge2
  %.promoted = phi i32 [ %33, %.critedge2 ], [ %.promoted51, %24 ]
  %35 = icmp sgt i32 %.promoted, %3
  br i1 %35, label %.lr.ph39.preheader, label %.critedge4

.lr.ph39.preheader:                               ; preds = %.critedge
  %36 = sext i32 %.promoted to i64
  %37 = sext i32 %3 to i64
  br label %.lr.ph39

.lr.ph39:                                         ; preds = %.lr.ph39.preheader, %41
  %indvars.iv46 = phi i64 [ %36, %.lr.ph39.preheader ], [ %indvars.iv.next47, %41 ]
  %indvars.iv.next47 = add nsw i64 %indvars.iv46, -1
  %38 = getelementptr inbounds %struct.pme_setup_t, ptr %8, i64 %indvars.iv.next47, i32 9
  %39 = load i32, ptr %38, align 8
  %40 = icmp eq i32 %39, 0
  br i1 %40, label %41, label %.critedge4

41:                                               ; preds = %.lr.ph39
  %42 = trunc nsw i64 %indvars.iv.next47 to i32
  store i32 %42, ptr %4, align 4
  %43 = icmp sgt i64 %indvars.iv.next47, %37
  br i1 %43, label %.lr.ph39, label %.critedge4, !llvm.loop !12

.critedge4:                                       ; preds = %.lr.ph39, %41, %1, %.critedge
  %44 = lshr exact i64 %11, 6
  %45 = trunc i64 %44 to i32
  %46 = getelementptr inbounds i8, ptr %0, i64 136
  store i32 %45, ptr %46, align 8
  %47 = shl i64 %11, 26
  %sext = add i64 %47, -4294967296
  %48 = ashr exact i64 %sext, 32
  %49 = getelementptr inbounds %struct.pme_setup_t, ptr %8, i64 %48, i32 9
  %50 = load i32, ptr %49, align 8
  %51 = icmp sgt i32 %50, 0
  br i1 %51, label %52, label %65

52:                                               ; preds = %.critedge4
  %53 = add nsw i32 %45, -1
  %54 = sext i32 %53 to i64
  %55 = getelementptr inbounds %struct.pme_setup_t, ptr %8, i64 %54, i32 10
  %56 = load double, ptr %55, align 8
  %57 = getelementptr inbounds i8, ptr %0, i64 124
  %58 = load i32, ptr %57, align 4
  %59 = sext i32 %58 to i64
  %60 = getelementptr inbounds %struct.pme_setup_t, ptr %8, i64 %59, i32 10
  %61 = load double, ptr %60, align 8
  %62 = fmul double %61, 0x3FF1EB8520000000
  %63 = fcmp ogt double %56, %62
  br i1 %63, label %64, label %65

64:                                               ; preds = %52
  store i32 %53, ptr %46, align 8
  br label %65

65:                                               ; preds = %64, %52, %.critedge4
  %66 = phi i32 [ %53, %64 ], [ %45, %52 ], [ %45, %.critedge4 ]
  %67 = getelementptr inbounds i8, ptr %0, i64 148
  store i32 1, ptr %67, align 4
  %68 = getelementptr inbounds i8, ptr %0, i64 120
  store i32 %66, ptr %68, align 8
  ret void
}